target datalayout = "e-m:e-p270:32:32-p271:32:32-p272:64:64-i64:64-i128:128-f80:128-n8:16:32:64-S128"
target triple = "x86_64-pc-linux-gnu"

%"struct.std::atomic" = type { %"struct.std::__atomic_base" }
%"struct.std::__atomic_base" = type { i64 }
%"class.google::protobuf::internal::LogMessage" = type { i32, ptr, i32, %"class.std::__cxx11::basic_string" }
%"class.std::__cxx11::basic_string" = type { %"struct.std::__cxx11::basic_string<char>::_Alloc_hider", i64, %union.anon }
%"struct.std::__cxx11::basic_string<char>::_Alloc_hider" = type { ptr }
%union.anon = type { i64, [8 x i8] }
%"class.google::protobuf::internal::LogFinisher" = type { i8 }
%"struct.google::protobuf::internal::SerialArena::Block" = type { ptr, i64, ptr }
%"class.google::protobuf::internal::SerialArena" = type { ptr, ptr, ptr, i64, %"struct.std::atomic", ptr, ptr }
%"struct.google::protobuf::internal::SerialArena::CleanupNode" = type { ptr, ptr }

@.str.7 = private unnamed_addr constant [142 x i8] c"generated/home/dtcxzyw/WorkSpace/Projects/compilers/llvm-opt-benchmark/bench/opencv/opencv/3rdparty/protobuf/src/google/protobuf/arena_impl.h\00", align 1
@.str.8 = private unnamed_addr constant [26 x i8] c"CHECK failed: n <= size: \00", align 1

; Function Attrs: mustprogress uwtable
define linkonce_odr hidden noundef ptr @_ZN6google8protobuf8internal11SerialArena5Block7PointerEm(ptr noundef nonnull align 8 dereferenceable(24) %0, i64 noundef %1) #4 comdat align 2 personality ptr @__gxx_personality_v0 {
  %3 = alloca ptr, align 8
  %4 = alloca i64, align 8
  %5 = alloca %"class.google::protobuf::internal::LogMessage", align 8
  %6 = alloca i1, align 1
  %7 = alloca i1, align 1
  %8 = alloca ptr, align 8
  %9 = alloca i32, align 4
  %10 = alloca %"class.google::protobuf::internal::LogFinisher", align 1
  store ptr %0, ptr %3, align 8, !tbaa !13
  store i64 %1, ptr %4, align 8, !tbaa !15
  %11 = load ptr, ptr %3, align 8
  br label %12

12:                                               ; preds = %29, %2
  br i1 false, label %13, label %45

13:                                               ; preds = %12
  %14 = load i64, ptr %4, align 8, !tbaa !15
  %15 = getelementptr inbounds nuw %"struct.google::protobuf::internal::SerialArena::Block", ptr %11, i32 0, i32 1
  %16 = load i64, ptr %15, align 8, !tbaa !19
  %17 = icmp ule i64 %14, %16
  store i1 false, ptr %6, align 1
  store i1 false, ptr %7, align 1
  call void @llvm.lifetime.start.p0(i64 1, ptr %10) #3
  br i1 %17, label %18, label %19

18:                                               ; preds = %13
  br label %23

19:                                               ; preds = %13
  call void @llvm.lifetime.start.p0(i64 56, ptr %5) #3
  store i1 true, ptr %6, align 1
  call void @_ZN6google8protobuf8internal10LogMessageC1ENS0_8LogLevelEPKci(ptr noundef nonnull align 8 dereferenceable(56) %5, i32 noundef 3, ptr noundef @.str.7, i32 noundef 293)
  store i1 true, ptr %7, align 1
  %20 = invoke noundef nonnull align 8 dereferenceable(56) ptr @_ZN6google8protobuf8internal10LogMessagelsEPKc(ptr noundef nonnull align 8 dereferenceable(56) %5, ptr noundef @.str.8)
          to label %21 unwind label %30

21:                                               ; preds = %19
  invoke void @_ZN6google8protobuf8internal11LogFinisheraSERNS1_10LogMessageE(ptr noundef nonnull align 1 dereferenceable(1) %10, ptr noundef nonnull align 8 dereferenceable(56) %20)
          to label %22 unwind label %34

22:                                               ; preds = %21
  br label %23

23:                                               ; preds = %22, %18
  call void @llvm.lifetime.end.p0(i64 1, ptr %10) #3
  %24 = load i1, ptr %7, align 1
  br i1 %24, label %25, label %26

25:                                               ; preds = %23
  call void @_ZN6google8protobuf8internal10LogMessageD1Ev(ptr noundef nonnull align 8 dereferenceable(56) %5) #3
  br label %26

26:                                               ; preds = %25, %23
  %27 = load i1, ptr %6, align 1
  br i1 %27, label %28, label %29

28:                                               ; preds = %26
  call void @llvm.lifetime.end.p0(i64 56, ptr %5) #3
  br label %29

29:                                               ; preds = %28, %26
  br label %12, !llvm.loop !21

30:                                               ; preds = %19
  %31 = landingpad { ptr, i32 }
          cleanup
  %32 = extractvalue { ptr, i32 } %31, 0
  store ptr %32, ptr %8, align 8
  %33 = extractvalue { ptr, i32 } %31, 1
  store i32 %33, ptr %9, align 4
  br label %38

34:                                               ; preds = %21
  %35 = landingpad { ptr, i32 }
          cleanup
  %36 = extractvalue { ptr, i32 } %35, 0
  store ptr %36, ptr %8, align 8
  %37 = extractvalue { ptr, i32 } %35, 1
  store i32 %37, ptr %9, align 4
  call void @llvm.lifetime.end.p0(i64 1, ptr %10) #3
  br label %38

38:                                               ; preds = %34, %30
  %39 = load i1, ptr %7, align 1
  br i1 %39, label %40, label %41

40:                                               ; preds = %38
  call void @_ZN6google8protobuf8internal10LogMessageD1Ev(ptr noundef nonnull align 8 dereferenceable(56) %5) #3
  br label %41

41:                                               ; preds = %40, %38
  %42 = load i1, ptr %6, align 1
  br i1 %42, label %43, label %44

43:                                               ; preds = %41
  call void @llvm.lifetime.end.p0(i64 56, ptr %5) #3
  br label %44

44:                                               ; preds = %43, %41
  br label %48

45:                                               ; preds = %12
  %46 = load i64, ptr %4, align 8, !tbaa !15
  %47 = getelementptr inbounds nuw i8, ptr %11, i64 %46
  ret ptr %47

48:                                               ; preds = %44
  %49 = load ptr, ptr %8, align 8
  %50 = load i32, ptr %9, align 4
  %51 = insertvalue { ptr, i32 } poison, ptr %49, 0
  %52 = insertvalue { ptr, i32 } %51, i32 %50, 1
  resume { ptr, i32 } %52
}

; Function Attrs: mustprogress uwtable
define hidden void @_ZN6google8protobuf8internal11SerialArena11CleanupListEv(ptr noundef nonnull align 8 dereferenceable(56) %0) #4 align 2 {
  %2 = alloca ptr, align 8
  %3 = alloca ptr, align 8
  %4 = alloca ptr, align 8
  %5 = alloca ptr, align 8
  %6 = alloca i64, align 8
  store ptr %0, ptr %2, align 8, !tbaa !22
  %7 = load ptr, ptr %2, align 8
  call void @llvm.lifetime.start.p0(i64 8, ptr %3) #3
  %8 = getelementptr inbounds nuw %"class.google::protobuf::internal::SerialArena", ptr %7, i32 0, i32 1
  %9 = load ptr, ptr %8, align 8, !tbaa !30
  store ptr %9, ptr %3, align 8, !tbaa !13
  %10 = getelementptr inbounds nuw %"class.google::protobuf::internal::SerialArena", ptr %7, i32 0, i32 6
  %11 = load ptr, ptr %10, align 8, !tbaa !32
  %12 = load ptr, ptr %3, align 8, !tbaa !13
  %13 = getelementptr inbounds nuw %"struct.google::protobuf::internal::SerialArena::Block", ptr %12, i32 0, i32 2
  store ptr %11, ptr %13, align 8, !tbaa !20
  br label %14

14:                                               ; preds = %52, %1
  call void @llvm.lifetime.start.p0(i64 8, ptr %4) #3
  %15 = load ptr, ptr %3, align 8, !tbaa !13
  %16 = load ptr, ptr %3, align 8, !tbaa !13
  %17 = getelementptr inbounds nuw %"struct.google::protobuf::internal::SerialArena::Block", ptr %16, i32 0, i32 1
  %18 = load i64, ptr %17, align 8, !tbaa !19
  %19 = and i64 %18, -8
  %20 = call noundef ptr @_ZN6google8protobuf8internal11SerialArena5Block7PointerEm(ptr noundef nonnull align 8 dereferenceable(24) %15, i64 noundef %19)
  store ptr %20, ptr %4, align 8, !tbaa !46
  call void @llvm.lifetime.start.p0(i64 8, ptr %5) #3
  %21 = load ptr, ptr %3, align 8, !tbaa !13
  %22 = getelementptr inbounds nuw %"struct.google::protobuf::internal::SerialArena::Block", ptr %21, i32 0, i32 2
  %23 = load ptr, ptr %22, align 8, !tbaa !20
  store ptr %23, ptr %5, align 8, !tbaa !46
  call void @llvm.lifetime.start.p0(i64 8, ptr %6) #3
  %24 = load ptr, ptr %4, align 8, !tbaa !46
  %25 = load ptr, ptr %5, align 8, !tbaa !46
  %26 = ptrtoint ptr %24 to i64
  %27 = ptrtoint ptr %25 to i64
  %28 = sub i64 %26, %27
  %29 = sdiv exact i64 %28, 16
  store i64 %29, ptr %6, align 8, !tbaa !15
  %30 = load i64, ptr %6, align 8, !tbaa !15
  %31 = icmp sgt i64 %30, 0
  br i1 %31, label %32, label %48

32:                                               ; preds = %14
  br label %33

33:                                               ; preds = %44, %32
  %34 = load ptr, ptr %5, align 8, !tbaa !46
  %35 = load ptr, ptr %4, align 8, !tbaa !46
  %36 = icmp ult ptr %34, %35
  br i1 %36, label %37, label %47

37:                                               ; preds = %33
  %38 = load ptr, ptr %5, align 8, !tbaa !46
  %39 = getelementptr inbounds nuw %"struct.google::protobuf::internal::SerialArena::CleanupNode", ptr %38, i32 0, i32 1
  %40 = load ptr, ptr %39, align 8, !tbaa !47
  %41 = load ptr, ptr %5, align 8, !tbaa !46
  %42 = getelementptr inbounds nuw %"struct.google::protobuf::internal::SerialArena::CleanupNode", ptr %41, i32 0, i32 0
  %43 = load ptr, ptr %42, align 8, !tbaa !49
  call void %40(ptr noundef %43)
  br label %44

44:                                               ; preds = %37
  %45 = load ptr, ptr %5, align 8, !tbaa !46
  %46 = getelementptr inbounds nuw %"struct.google::protobuf::internal::SerialArena::CleanupNode", ptr %45, i32 1
  store ptr %46, ptr %5, align 8, !tbaa !46
  br label %33, !llvm.loop !50

47:                                               ; preds = %33
  br label %48

48:                                               ; preds = %47, %14
  %49 = load ptr, ptr %3, align 8, !tbaa !13
  %50 = getelementptr inbounds nuw %"struct.google::protobuf::internal::SerialArena::Block", ptr %49, i32 0, i32 0
  %51 = load ptr, ptr %50, align 8, !tbaa !16
  store ptr %51, ptr %3, align 8, !tbaa !13
  call void @llvm.lifetime.end.p0(i64 8, ptr %6) #3
  call void @llvm.lifetime.end.p0(i64 8, ptr %5) #3
  call void @llvm.lifetime.end.p0(i64 8, ptr %4) #3
  br label %52

52:                                               ; preds = %48
  %53 = load ptr, ptr %3, align 8, !tbaa !13
  %54 = icmp ne ptr %53, null
  br i1 %54, label %14, label %55, !llvm.loop !51

55:                                               ; preds = %52
  call void @llvm.lifetime.end.p0(i64 8, ptr %3) #3
  ret void
}