; Function Attrs: mustprogress uwtable
define hidden void @_ZN6google8protobuf8internal11SerialArena11CleanupListEv(ptr noundef nonnull readonly align 8 captures(none) dereferenceable(56) %0) local_unnamed_addr #6 align 2 personality ptr @__gxx_personality_v0 {
  %2 = getelementptr inbounds nuw i8, ptr %0, i64 8
  %3 = load ptr, ptr %2, align 8, !tbaa !21
  %4 = getelementptr inbounds nuw i8, ptr %0, i64 48
  %5 = load ptr, ptr %4, align 8, !tbaa !23
  %6 = getelementptr inbounds nuw i8, ptr %3, i64 16
  store ptr %5, ptr %6, align 8, !tbaa !12
  br label %7

7:                                                ; preds = %.loopexit, %1
  %.0 = phi ptr [ %3, %1 ], [ %24, %.loopexit ]
  %8 = getelementptr inbounds nuw i8, ptr %.0, i64 8
  %9 = load i64, ptr %8, align 8, !tbaa !11
  %10 = and i64 %9, -8
  %11 = getelementptr inbounds nuw i8, ptr %.0, i64 %10
  %12 = getelementptr inbounds nuw i8, ptr %.0, i64 16
  %13 = load ptr, ptr %12, align 8, !tbaa !12
  %14 = ptrtoint ptr %11 to i64
  %15 = ptrtoint ptr %13 to i64
  %16 = sub i64 %14, %15
  %17 = icmp sgt i64 %16, 0
  %18 = icmp ult ptr %13, %11
  %or.cond = and i1 %17, %18
  br i1 %or.cond, label %.lr.ph, label %.loopexit

.lr.ph:                                           ; preds = %7, %.lr.ph
  %.01416 = phi ptr [ %22, %.lr.ph ], [ %13, %7 ]
  %19 = getelementptr inbounds nuw i8, ptr %.01416, i64 8
  %20 = load ptr, ptr %19, align 8, !tbaa !26
  %21 = load ptr, ptr %.01416, align 8, !tbaa !28
  tail call void %20(ptr noundef %21)
  %22 = getelementptr inbounds nuw i8, ptr %.01416, i64 16
  %23 = icmp ult ptr %22, %11
  br i1 %23, label %.lr.ph, label %.loopexit, !llvm.loop !29

.loopexit:                                        ; preds = %.lr.ph, %7
  %24 = load ptr, ptr %.0, align 8, !tbaa !3
  %.not = icmp eq ptr %24, null
  br i1 %.not, label %25, label %7, !llvm.loop !31

25:                                               ; preds = %.loopexit
  ret void
}